; Function Attrs: mustprogress uwtable
define hidden void @_ZN13proof_checker15hyp_decl_plugin14get_sort_namesER7svectorI12builtin_namejERK6symbol(ptr nocapture nonnull readnone align 8 %this, ptr noundef nonnull align 8 dereferenceable(8) %sort_names, ptr nocapture noundef nonnull readonly align 8 dereferenceable(8) %logic) unnamed_addr #4 align 2 {
entry:
  %ref.tmp = alloca %struct.builtin_name, align 8
  %0 = load ptr, ptr %logic, align 8
  %1 = load ptr, ptr @_ZN6symbol4nullE, align 8
  %cmp.i = icmp eq ptr %0, %1
  br i1 %cmp.i, label %if.then, label %if.end

if.then:                                          ; preds = %entry
  store i32 0, ptr %ref.tmp, align 8
  %m_name.i = getelementptr inbounds i8, ptr %ref.tmp, i64 8
  call void @_ZN6symbolC1EPKc(ptr noundef nonnull align 8 dereferenceable(8) %m_name.i, ptr noundef nonnull @.str)
  %2 = load ptr, ptr %sort_names, align 8
  %cmp.i1 = icmp eq ptr %2, null
  br i1 %cmp.i1, label %if.then.i, label %lor.lhs.false.i

lor.lhs.false.i:                                  ; preds = %if.then
  %arrayidx.i = getelementptr inbounds i8, ptr %2, i64 -4
  %3 = load i32, ptr %arrayidx.i, align 4
  %arrayidx4.i = getelementptr inbounds i8, ptr %2, i64 -8
  %4 = load i32, ptr %arrayidx4.i, align 4
  %cmp5.i = icmp eq i32 %3, %4
  br i1 %cmp5.i, label %if.then.i, label %_ZN6vectorI12builtin_nameLb0EjE9push_backEOS0_.exit

if.then.i:                                        ; preds = %lor.lhs.false.i, %if.then
  call void @_ZN6vectorI12builtin_nameLb0EjE13expand_vectorEv(ptr noundef nonnull align 8 dereferenceable(8) %sort_names)
  %.pre.i = load ptr, ptr %sort_names, align 8
  %arrayidx8.phi.trans.insert.i = getelementptr inbounds i8, ptr %.pre.i, i64 -4
  %.pre1.i = load i32, ptr %arrayidx8.phi.trans.insert.i, align 4
  br label %_ZN6vectorI12builtin_nameLb0EjE9push_backEOS0_.exit

_ZN6vectorI12builtin_nameLb0EjE9push_backEOS0_.exit: ; preds = %lor.lhs.false.i, %if.then.i
  %5 = phi i32 [ %.pre1.i, %if.then.i ], [ %3, %lor.lhs.false.i ]
  %6 = phi ptr [ %.pre.i, %if.then.i ], [ %2, %lor.lhs.false.i ]
  %idx.ext.i = zext i32 %5 to i64
  %add.ptr.i = getelementptr inbounds %struct.builtin_name, ptr %6, i64 %idx.ext.i
  call void @llvm.memcpy.p0.p0.i64(ptr noundef nonnull align 8 dereferenceable(16) %add.ptr.i, ptr noundef nonnull align 8 dereferenceable(16) %ref.tmp, i64 16, i1 false)
  %7 = load ptr, ptr %sort_names, align 8
  %arrayidx10.i = getelementptr inbounds i8, ptr %7, i64 -4
  %8 = load i32, ptr %arrayidx10.i, align 4
  %inc.i = add i32 %8, 1
  store i32 %inc.i, ptr %arrayidx10.i, align 4
  br label %if.end

if.end:                                           ; preds = %_ZN6vectorI12builtin_nameLb0EjE9push_backEOS0_.exit, %entry
  ret void
}